; Function Attrs: mustprogress uwtable
define void @_ZN21MLRenderingBBoxAction18createSisterActionERP17MLRenderingActionP7QObject(ptr noundef nonnull align 8 dereferenceable(16) %0, ptr nocapture noundef nonnull writeonly align 8 dereferenceable(8) %1, ptr noundef %2) unnamed_addr #9 align 2 personality ptr @__gxx_personality_v0 {
  %4 = alloca i8, align 1
  %5 = alloca %class.QVariant, align 8
  %6 = tail call noalias noundef nonnull dereferenceable(16) ptr @_Znwm(i64 noundef 16) #24
  call void @llvm.lifetime.start.p0(i64 1, ptr nonnull %4)
  call void @llvm.lifetime.start.p0(i64 16, ptr nonnull %5)
  store i8 0, ptr %4, align 1
  invoke void @_ZNK7QAction4dataEv(ptr dead_on_unwind nonnull writable sret(%class.QVariant) align 8 %5, ptr noundef nonnull align 8 dereferenceable(16) %0)
          to label %.noexc unwind label %12

.noexc:                                           ; preds = %3
  %7 = invoke noundef i32 @_ZNK8QVariant5toIntEPb(ptr noundef nonnull align 8 dereferenceable(16) %5, ptr noundef nonnull %4)
          to label %10 unwind label %8

8:                                                ; preds = %.noexc
  %9 = landingpad { ptr, i32 }
          cleanup
  call void @_ZN8QVariantD1Ev(ptr noundef nonnull align 8 dereferenceable(16) %5) #21
  br label %.body

10:                                               ; preds = %.noexc
  call void @_ZN8QVariantD1Ev(ptr noundef nonnull align 8 dereferenceable(16) %5) #21
  call void @llvm.lifetime.end.p0(i64 1, ptr nonnull %4)
  call void @llvm.lifetime.end.p0(i64 16, ptr nonnull %5)
  invoke void @_ZN21MLRenderingBBoxActionC1EiP7QObject(ptr noundef nonnull align 8 dereferenceable(16) %6, i32 noundef %7, ptr noundef %2)
          to label %11 unwind label %12

11:                                               ; preds = %10
  store ptr %6, ptr %1, align 8
  ret void

12:                                               ; preds = %3, %10
  %13 = landingpad { ptr, i32 }
          cleanup
  br label %.body

.body:                                            ; preds = %8, %12
  %eh.lpad-body = phi { ptr, i32 } [ %13, %12 ], [ %9, %8 ]
  call void @_ZdlPv(ptr noundef nonnull %6) #20
  resume { ptr, i32 } %eh.lpad-body
}